target datalayout = "e-m:e-p270:32:32-p271:32:32-p272:64:64-i64:64-i128:128-f80:128-n8:16:32:64-S128"
target triple = "x86_64-pc-linux-gnu"

%struct._rtp_dyn_payload_t = type { ptr, i64 }

@rtp_dyn_payloads = internal global ptr null, align 8

; Function Attrs: null_pointer_is_valid sspstrong uwtable
define ptr @rtp_dyn_payload_new() #1 {
  %1 = alloca ptr, align 8
  call void @llvm.lifetime.start.p0(i64 8, ptr %1) #14
  %2 = call ptr @wmem_file_scope()
  %3 = call noalias ptr @wmem_alloc(ptr noundef %2, i64 noundef 16) #15
  store ptr %3, ptr %1, align 8
  %4 = call ptr @g_hash_table_new_full(ptr noundef null, ptr noundef null, ptr noundef null, ptr noundef @rtp_dyn_payload_value_destroy)
  %5 = load ptr, ptr %1, align 8
  %6 = getelementptr inbounds nuw %struct._rtp_dyn_payload_t, ptr %5, i32 0, i32 0
  store ptr %4, ptr %6, align 8
  %7 = load ptr, ptr %1, align 8
  %8 = getelementptr inbounds nuw %struct._rtp_dyn_payload_t, ptr %7, i32 0, i32 1
  store i64 1, ptr %8, align 8
  %9 = load ptr, ptr @rtp_dyn_payloads, align 8
  %10 = load ptr, ptr %1, align 8
  %11 = load ptr, ptr %1, align 8
  %12 = call i32 @g_hash_table_insert(ptr noundef %9, ptr noundef %10, ptr noundef %11)
  %13 = load ptr, ptr %1, align 8
  call void @llvm.lifetime.end.p0(i64 8, ptr %1) #14
  ret ptr %13
}