; Function Attrs: null_pointer_is_valid sspstrong uwtable
define noundef ptr @rtp_dyn_payload_new() local_unnamed_addr #1 {
  %1 = tail call ptr @wmem_file_scope()
  %2 = tail call noalias dereferenceable_or_null(16) ptr @wmem_alloc(ptr noundef %1, i64 noundef 16) #14
  %3 = tail call ptr @g_hash_table_new_full(ptr noundef null, ptr noundef null, ptr noundef null, ptr noundef nonnull @rtp_dyn_payload_value_destroy)
  store ptr %3, ptr %2, align 8
  %4 = getelementptr inbounds nuw i8, ptr %2, i64 8
  store i64 1, ptr %4, align 8
  %5 = load ptr, ptr @rtp_dyn_payloads, align 8
  %6 = tail call i32 @g_hash_table_insert(ptr noundef %5, ptr noundef %2, ptr noundef %2)
  ret ptr %2
}